(lp0
(S'cppflags'
p1
ccopy_reg
_reconstructor
p2
(cino.utils
SpaceList
p3
c__builtin__
list
p4
(lp5
S'-mmcu=atmega2560'
p6
aS'-DF_CPU=16000000L'
p7
aS'-DARDUINO=101'
p8
aS'-I/usr/share/arduino/hardware/arduino/cores/arduino'
p9
aS'-ffunction-sections'
p10
aS'-fdata-sections'
p11
aS'-g'
p12
aS'-Os'
p13
aS'-w'
p14
aS'-I/usr/share/arduino/hardware/arduino/variants/mega'
p15
aS'-I/usr/share/arduino/hardware/arduino/cores/arduino'
p16
atp17
Rp18
tp19
a(S'cxx'
p20
S'/usr/bin/avr-g++'
p21
tp22
a(S'arduino_libraries_dir'
p23
S'/usr/share/arduino/libraries'
p24
tp25
a(S'avrdude'
p26
S'/usr/share/arduino/hardware/tools/avrdude'
p27
tp28
a(S'ar'
p29
S'/usr/bin/avr-ar'
p30
tp31
a(S'names'
p32
(dp33
S'cpp'
p34
S'%s.cpp'
p35
sS'obj'
p36
S'%s.o'
p37
sS'lib'
p38
S'lib%s.a'
p39
sS'deps'
p40
S'%s.d'
p41
stp42
a(S'ldflags'
p43
g2
(g3
g4
(lp44
g6
aS'-Wl,-Os'
p45
aS'-Wl,--gc-sections'
p46
atp47
Rp48
tp49
a(S'arduino_lib_version'
p50
g2
(cino.environment
Version
p51
c__builtin__
tuple
p52
(I1
I0
I1
tp53
tp54
Rp55
tp56
a(S'objcopy'
p57
S'/usr/bin/avr-objcopy'
p58
tp59
a(S'board_models'
p60
cino.environment
BoardModels
p61
((lp62
(lp63
S'uno'
p64
a(dp65
S'_coredir'
p66
S'/usr/share/arduino/hardware/arduino'
p67
sS'bootloader'
p68
(dp69
S'extended_fuses'
p70
S'0x05'
p71
sS'high_fuses'
p72
S'0xde'
p73
sS'low_fuses'
p74
S'0xff'
p75
sS'lock_bits'
p76
S'0x0F'
p77
sS'file'
p78
S'optiboot_atmega328.hex'
p79
sS'path'
p80
S'optiboot'
p81
sS'unlock_bits'
p82
S'0x3F'
p83
ssS'upload'
p84
(dp85
S'protocol'
p86
S'arduino'
p87
sS'maximum_size'
p88
S'32256'
p89
sS'speed'
p90
S'115200'
p91
ssS'name'
p92
S'Arduino Uno'
p93
sS'build'
p94
(dp95
S'core'
p96
S'arduino'
p97
sS'mcu'
p98
S'atmega328p'
p99
sS'f_cpu'
p100
S'16000000L'
p101
sS'variant'
p102
S'standard'
p103
ssaa(lp104
S'atmega328'
p105
a(dp106
g66
S'/usr/share/arduino/hardware/arduino'
p107
sS'bootloader'
p108
(dp109
S'extended_fuses'
p110
S'0x05'
p111
sS'high_fuses'
p112
S'0xDA'
p113
sS'low_fuses'
p114
S'0xFF'
p115
sS'lock_bits'
p116
S'0x0F'
p117
sS'file'
p118
S'ATmegaBOOT_168_atmega328.hex'
p119
sS'path'
p120
S'atmega'
p121
sS'unlock_bits'
p122
S'0x3F'
p123
ssS'upload'
p124
(dp125
S'protocol'
p126
S'arduino'
p127
sS'maximum_size'
p128
S'30720'
p129
sS'speed'
p130
S'57600'
p131
ssS'name'
p132
S'Arduino Duemilanove w/ ATmega328'
p133
sS'build'
p134
(dp135
S'core'
p136
S'arduino'
p137
sS'mcu'
p138
S'atmega328p'
p139
sS'f_cpu'
p140
S'16000000L'
p141
sS'variant'
p142
S'standard'
p143
ssaa(lp144
S'diecimila'
p145
a(dp146
g66
S'/usr/share/arduino/hardware/arduino'
p147
sS'bootloader'
p148
(dp149
S'extended_fuses'
p150
S'0x00'
p151
sS'high_fuses'
p152
S'0xdd'
p153
sS'low_fuses'
p154
S'0xff'
p155
sS'lock_bits'
p156
S'0x0F'
p157
sS'file'
p158
S'ATmegaBOOT_168_diecimila.hex'
p159
sS'path'
p160
S'atmega'
p161
sS'unlock_bits'
p162
S'0x3F'
p163
ssS'upload'
p164
(dp165
S'protocol'
p166
S'arduino'
p167
sS'maximum_size'
p168
S'14336'
p169
sS'speed'
p170
S'19200'
p171
ssS'name'
p172
S'Arduino Diecimila or Duemilanove w/ ATmega168'
p173
sS'build'
p174
(dp175
S'core'
p176
S'arduino'
p177
sS'mcu'
p178
S'atmega168'
p179
sS'f_cpu'
p180
S'16000000L'
p181
sS'variant'
p182
S'standard'
p183
ssaa(lp184
S'nano328'
p185
a(dp186
g66
S'/usr/share/arduino/hardware/arduino'
p187
sS'bootloader'
p188
(dp189
S'extended_fuses'
p190
S'0x05'
p191
sS'high_fuses'
p192
S'0xDA'
p193
sS'low_fuses'
p194
S'0xFF'
p195
sS'lock_bits'
p196
S'0x0F'
p197
sS'file'
p198
S'ATmegaBOOT_168_atmega328.hex'
p199
sS'path'
p200
S'atmega'
p201
sS'unlock_bits'
p202
S'0x3F'
p203
ssS'upload'
p204
(dp205
S'protocol'
p206
S'arduino'
p207
sS'maximum_size'
p208
S'30720'
p209
sS'speed'
p210
S'57600'
p211
ssS'name'
p212
S'Arduino Nano w/ ATmega328'
p213
sS'build'
p214
(dp215
S'core'
p216
S'arduino'
p217
sS'mcu'
p218
S'atmega328p'
p219
sS'f_cpu'
p220
S'16000000L'
p221
sS'variant'
p222
S'eightanaloginputs'
p223
ssaa(lp224
S'nano'
p225
a(dp226
g66
S'/usr/share/arduino/hardware/arduino'
p227
sS'bootloader'
p228
(dp229
S'extended_fuses'
p230
S'0x00'
p231
sS'high_fuses'
p232
S'0xdd'
p233
sS'low_fuses'
p234
S'0xff'
p235
sS'lock_bits'
p236
S'0x0F'
p237
sS'file'
p238
S'ATmegaBOOT_168_diecimila.hex'
p239
sS'path'
p240
S'atmega'
p241
sS'unlock_bits'
p242
S'0x3F'
p243
ssS'upload'
p244
(dp245
S'protocol'
p246
S'arduino'
p247
sS'maximum_size'
p248
S'14336'
p249
sS'speed'
p250
S'19200'
p251
ssS'name'
p252
S'Arduino Nano w/ ATmega168'
p253
sS'build'
p254
(dp255
S'core'
p256
S'arduino'
p257
sS'mcu'
p258
S'atmega168'
p259
sS'f_cpu'
p260
S'16000000L'
p261
sS'variant'
p262
S'eightanaloginputs'
p263
ssaa(lp264
S'mega2560'
p265
a(dp266
g66
S'/usr/share/arduino/hardware/arduino'
p267
sS'bootloader'
p268
(dp269
S'extended_fuses'
p270
S'0xFD'
p271
sS'high_fuses'
p272
S'0xD8'
p273
sS'low_fuses'
p274
S'0xFF'
p275
sS'lock_bits'
p276
S'0x0F'
p277
sS'file'
p278
S'stk500boot_v2_mega2560.hex'
p279
sS'path'
p280
S'stk500v2'
p281
sS'unlock_bits'
p282
S'0x3F'
p283
ssS'upload'
p284
(dp285
S'protocol'
p286
S'stk500v2'
p287
sS'maximum_size'
p288
S'258048'
p289
sS'speed'
p290
S'115200'
p291
ssS'name'
p292
S'Arduino Mega 2560 or Mega ADK'
p293
sS'build'
p294
(dp295
S'core'
p296
S'arduino'
p297
sS'mcu'
p298
S'atmega2560'
p299
sS'f_cpu'
p300
S'16000000L'
p301
sS'variant'
p302
S'mega'
p303
ssaa(lp304
S'mega'
p305
a(dp306
g66
S'/usr/share/arduino/hardware/arduino'
p307
sS'bootloader'
p308
(dp309
S'extended_fuses'
p310
S'0xF5'
p311
sS'high_fuses'
p312
S'0xDA'
p313
sS'low_fuses'
p314
S'0xFF'
p315
sS'lock_bits'
p316
S'0x0F'
p317
sS'file'
p318
S'ATmegaBOOT_168_atmega1280.hex'
p319
sS'path'
p320
S'atmega'
p321
sS'unlock_bits'
p322
S'0x3F'
p323
ssS'upload'
p324
(dp325
S'protocol'
p326
S'arduino'
p327
sS'maximum_size'
p328
S'126976'
p329
sS'speed'
p330
S'57600'
p331
ssS'name'
p332
S'Arduino Mega (ATmega1280)'
p333
sS'build'
p334
(dp335
S'core'
p336
S'arduino'
p337
sS'mcu'
p338
S'atmega1280'
p339
sS'f_cpu'
p340
S'16000000L'
p341
sS'variant'
p342
S'mega'
p343
ssaa(lp344
S'leonardo'
p345
a(dp346
g66
S'/usr/share/arduino/hardware/arduino'
p347
sS'bootloader'
p348
(dp349
S'extended_fuses'
p350
S'0xcb'
p351
sS'high_fuses'
p352
S'0xd8'
p353
sS'low_fuses'
p354
S'0xff'
p355
sS'lock_bits'
p356
S'0x2F'
p357
sS'file'
p358
S'Caterina-Leonardo.hex'
p359
sS'path'
p360
S'caterina'
p361
sS'unlock_bits'
p362
S'0x3F'
p363
ssS'upload'
p364
(dp365
S'protocol'
p366
S'avr109'
p367
sS'maximum_size'
p368
S'28672'
p369
sS'speed'
p370
S'57600'
p371
sS'disable_flushing'
p372
S'true'
p373
ssS'name'
p374
S'Arduino Leonardo'
p375
sS'build'
p376
(dp377
S'core'
p378
S'arduino'
p379
sS'f_cpu'
p380
S'16000000L'
p381
sS'vid'
p382
S'0x2341'
p383
sS'pid'
p384
S'0x8036'
p385
sS'variant'
p386
S'leonardo'
p387
sS'mcu'
p388
S'atmega32u4'
p389
ssaa(lp390
S'mini328'
p391
a(dp392
g66
S'/usr/share/arduino/hardware/arduino'
p393
sS'bootloader'
p394
(dp395
S'extended_fuses'
p396
S'0x05'
p397
sS'high_fuses'
p398
S'0xd8'
p399
sS'low_fuses'
p400
S'0xff'
p401
sS'lock_bits'
p402
S'0x0F'
p403
sS'file'
p404
S'optiboot_atmega328-Mini.hex'
p405
sS'path'
p406
S'optiboot'
p407
sS'unlock_bits'
p408
S'0x3F'
p409
ssS'upload'
p410
(dp411
S'protocol'
p412
S'arduino'
p413
sS'maximum_size'
p414
S'28672'
p415
sS'speed'
p416
S'115200'
p417
ssS'name'
p418
S'Arduino Mini w/ ATmega328'
p419
sS'build'
p420
(dp421
S'core'
p422
S'arduino'
p423
sS'mcu'
p424
S'atmega328p'
p425
sS'f_cpu'
p426
S'16000000L'
p427
sS'variant'
p428
S'eightanaloginputs'
p429
ssaa(lp430
S'mini'
p431
a(dp432
g66
S'/usr/share/arduino/hardware/arduino'
p433
sS'bootloader'
p434
(dp435
S'extended_fuses'
p436
S'0x00'
p437
sS'high_fuses'
p438
S'0xdd'
p439
sS'low_fuses'
p440
S'0xff'
p441
sS'lock_bits'
p442
S'0x0F'
p443
sS'file'
p444
S'ATmegaBOOT_168_ng.hex'
p445
sS'path'
p446
S'atmega'
p447
sS'unlock_bits'
p448
S'0x3F'
p449
ssS'upload'
p450
(dp451
S'protocol'
p452
S'arduino'
p453
sS'maximum_size'
p454
S'14336'
p455
sS'speed'
p456
S'19200'
p457
ssS'name'
p458
S'Arduino Mini w/ ATmega168'
p459
sS'build'
p460
(dp461
S'core'
p462
S'arduino'
p463
sS'mcu'
p464
S'atmega168'
p465
sS'f_cpu'
p466
S'16000000L'
p467
sS'variant'
p468
S'eightanaloginputs'
p469
ssaa(lp470
S'ethernet'
p471
a(dp472
g66
S'/usr/share/arduino/hardware/arduino'
p473
sS'bootloader'
p474
(dp475
S'extended_fuses'
p476
S'0x05'
p477
sS'high_fuses'
p478
S'0xde'
p479
sS'low_fuses'
p480
S'0xff'
p481
sS'lock_bits'
p482
S'0x0F'
p483
sS'file'
p484
S'optiboot_atmega328.hex'
p485
sS'path'
p486
S'optiboot'
p487
sS'unlock_bits'
p488
S'0x3F'
p489
ssS'upload'
p490
(dp491
S'protocol'
p492
S'arduino'
p493
sS'maximum_size'
p494
S'32256'
p495
sS'speed'
p496
S'115200'
p497
ssS'name'
p498
S'Arduino Ethernet'
p499
sS'build'
p500
(dp501
S'variant'
p502
S'standard'
p503
sS'mcu'
p504
S'atmega328p'
p505
sS'f_cpu'
p506
S'16000000L'
p507
sS'core'
p508
S'arduino'
p509
ssaa(lp510
S'fio'
p511
a(dp512
g66
S'/usr/share/arduino/hardware/arduino'
p513
sS'bootloader'
p514
(dp515
S'extended_fuses'
p516
S'0x05'
p517
sS'high_fuses'
p518
S'0xDA'
p519
sS'low_fuses'
p520
S'0xFF'
p521
sS'lock_bits'
p522
S'0x0F'
p523
sS'file'
p524
S'ATmegaBOOT_168_atmega328_pro_8MHz.hex'
p525
sS'path'
p526
S'arduino:atmega'
p527
sS'unlock_bits'
p528
S'0x3F'
p529
ssS'upload'
p530
(dp531
S'protocol'
p532
S'arduino'
p533
sS'maximum_size'
p534
S'30720'
p535
sS'speed'
p536
S'57600'
p537
ssS'name'
p538
S'Arduino Fio'
p539
sS'build'
p540
(dp541
S'core'
p542
S'arduino'
p543
sS'mcu'
p544
S'atmega328p'
p545
sS'f_cpu'
p546
S'8000000L'
p547
sS'variant'
p548
S'eightanaloginputs'
p549
ssaa(lp550
S'bt328'
p551
a(dp552
g66
S'/usr/share/arduino/hardware/arduino'
p553
sS'bootloader'
p554
(dp555
S'extended_fuses'
p556
S'0x05'
p557
sS'high_fuses'
p558
S'0xd8'
p559
sS'low_fuses'
p560
S'0xff'
p561
sS'lock_bits'
p562
S'0x0F'
p563
sS'file'
p564
S'ATmegaBOOT_168_atmega328_bt.hex'
p565
sS'path'
p566
S'bt'
p567
sS'unlock_bits'
p568
S'0x3F'
p569
ssS'upload'
p570
(dp571
S'protocol'
p572
S'arduino'
p573
sS'maximum_size'
p574
S'28672'
p575
sS'speed'
p576
S'19200'
p577
sS'disable_flushing'
p578
S'true'
p579
ssS'name'
p580
S'Arduino BT w/ ATmega328'
p581
sS'build'
p582
(dp583
S'core'
p584
S'arduino'
p585
sS'mcu'
p586
S'atmega328p'
p587
sS'f_cpu'
p588
S'16000000L'
p589
sS'variant'
p590
S'eightanaloginputs'
p591
ssaa(lp592
S'bt'
p593
a(dp594
g66
S'/usr/share/arduino/hardware/arduino'
p595
sS'bootloader'
p596
(dp597
S'extended_fuses'
p598
S'0x00'
p599
sS'high_fuses'
p600
S'0xdd'
p601
sS'low_fuses'
p602
S'0xff'
p603
sS'lock_bits'
p604
S'0x0F'
p605
sS'file'
p606
S'ATmegaBOOT_168.hex'
p607
sS'path'
p608
S'bt'
p609
sS'unlock_bits'
p610
S'0x3F'
p611
ssS'upload'
p612
(dp613
S'protocol'
p614
S'arduino'
p615
sS'maximum_size'
p616
S'14336'
p617
sS'speed'
p618
S'19200'
p619
sS'disable_flushing'
p620
S'true'
p621
ssS'name'
p622
S'Arduino BT w/ ATmega168'
p623
sS'build'
p624
(dp625
S'core'
p626
S'arduino'
p627
sS'mcu'
p628
S'atmega168'
p629
sS'f_cpu'
p630
S'16000000L'
p631
sS'variant'
p632
S'eightanaloginputs'
p633
ssaa(lp634
S'lilypad328'
p635
a(dp636
g66
S'/usr/share/arduino/hardware/arduino'
p637
sS'bootloader'
p638
(dp639
S'extended_fuses'
p640
S'0x05'
p641
sS'high_fuses'
p642
S'0xDA'
p643
sS'low_fuses'
p644
S'0xFF'
p645
sS'lock_bits'
p646
S'0x0F'
p647
sS'file'
p648
S'ATmegaBOOT_168_atmega328_pro_8MHz.hex'
p649
sS'path'
p650
S'atmega'
p651
sS'unlock_bits'
p652
S'0x3F'
p653
ssS'upload'
p654
(dp655
S'protocol'
p656
S'arduino'
p657
sS'maximum_size'
p658
S'30720'
p659
sS'speed'
p660
S'57600'
p661
ssS'name'
p662
S'LilyPad Arduino w/ ATmega328'
p663
sS'build'
p664
(dp665
S'core'
p666
S'arduino'
p667
sS'mcu'
p668
S'atmega328p'
p669
sS'f_cpu'
p670
S'8000000L'
p671
sS'variant'
p672
S'standard'
p673
ssaa(lp674
S'lilypad'
p675
a(dp676
g66
S'/usr/share/arduino/hardware/arduino'
p677
sS'bootloader'
p678
(dp679
S'extended_fuses'
p680
S'0x00'
p681
sS'high_fuses'
p682
S'0xdd'
p683
sS'low_fuses'
p684
S'0xe2'
p685
sS'lock_bits'
p686
S'0x0F'
p687
sS'file'
p688
S'LilyPadBOOT_168.hex'
p689
sS'path'
p690
S'lilypad'
p691
sS'unlock_bits'
p692
S'0x3F'
p693
ssS'upload'
p694
(dp695
S'protocol'
p696
S'arduino'
p697
sS'maximum_size'
p698
S'14336'
p699
sS'speed'
p700
S'19200'
p701
ssS'name'
p702
S'LilyPad Arduino w/ ATmega168'
p703
sS'build'
p704
(dp705
S'core'
p706
S'arduino'
p707
sS'mcu'
p708
S'atmega168'
p709
sS'f_cpu'
p710
S'8000000L'
p711
sS'variant'
p712
S'standard'
p713
ssaa(lp714
S'pro5v328'
p715
a(dp716
g66
S'/usr/share/arduino/hardware/arduino'
p717
sS'bootloader'
p718
(dp719
S'extended_fuses'
p720
S'0x05'
p721
sS'high_fuses'
p722
S'0xDA'
p723
sS'low_fuses'
p724
S'0xFF'
p725
sS'lock_bits'
p726
S'0x0F'
p727
sS'file'
p728
S'ATmegaBOOT_168_atmega328.hex'
p729
sS'path'
p730
S'atmega'
p731
sS'unlock_bits'
p732
S'0x3F'
p733
ssS'upload'
p734
(dp735
S'protocol'
p736
S'arduino'
p737
sS'maximum_size'
p738
S'30720'
p739
sS'speed'
p740
S'57600'
p741
ssS'name'
p742
S'Arduino Pro or Pro Mini (5V, 16 MHz) w/ ATmega328'
p743
sS'build'
p744
(dp745
S'core'
p746
S'arduino'
p747
sS'mcu'
p748
S'atmega328p'
p749
sS'f_cpu'
p750
S'16000000L'
p751
sS'variant'
p752
S'standard'
p753
ssaa(lp754
S'pro5v'
p755
a(dp756
g66
S'/usr/share/arduino/hardware/arduino'
p757
sS'bootloader'
p758
(dp759
S'extended_fuses'
p760
S'0x00'
p761
sS'high_fuses'
p762
S'0xdd'
p763
sS'low_fuses'
p764
S'0xff'
p765
sS'lock_bits'
p766
S'0x0F'
p767
sS'file'
p768
S'ATmegaBOOT_168_diecimila.hex'
p769
sS'path'
p770
S'atmega'
p771
sS'unlock_bits'
p772
S'0x3F'
p773
ssS'upload'
p774
(dp775
S'protocol'
p776
S'arduino'
p777
sS'maximum_size'
p778
S'14336'
p779
sS'speed'
p780
S'19200'
p781
ssS'name'
p782
S'Arduino Pro or Pro Mini (5V, 16 MHz) w/ ATmega168'
p783
sS'build'
p784
(dp785
S'core'
p786
S'arduino'
p787
sS'mcu'
p788
S'atmega168'
p789
sS'f_cpu'
p790
S'16000000L'
p791
sS'variant'
p792
S'standard'
p793
ssaa(lp794
S'pro328'
p795
a(dp796
g66
S'/usr/share/arduino/hardware/arduino'
p797
sS'bootloader'
p798
(dp799
S'extended_fuses'
p800
S'0x05'
p801
sS'high_fuses'
p802
S'0xDA'
p803
sS'low_fuses'
p804
S'0xFF'
p805
sS'lock_bits'
p806
S'0x0F'
p807
sS'file'
p808
S'ATmegaBOOT_168_atmega328_pro_8MHz.hex'
p809
sS'path'
p810
S'atmega'
p811
sS'unlock_bits'
p812
S'0x3F'
p813
ssS'upload'
p814
(dp815
S'protocol'
p816
S'arduino'
p817
sS'maximum_size'
p818
S'30720'
p819
sS'speed'
p820
S'57600'
p821
ssS'name'
p822
S'Arduino Pro or Pro Mini (3.3V, 8 MHz) w/ ATmega328'
p823
sS'build'
p824
(dp825
S'core'
p826
S'arduino'
p827
sS'mcu'
p828
S'atmega328p'
p829
sS'f_cpu'
p830
S'8000000L'
p831
sS'variant'
p832
S'standard'
p833
ssaa(lp834
S'pro'
p835
a(dp836
g66
S'/usr/share/arduino/hardware/arduino'
p837
sS'bootloader'
p838
(dp839
S'extended_fuses'
p840
S'0x00'
p841
sS'high_fuses'
p842
S'0xdd'
p843
sS'low_fuses'
p844
S'0xc6'
p845
sS'lock_bits'
p846
S'0x0F'
p847
sS'file'
p848
S'ATmegaBOOT_168_pro_8MHz.hex'
p849
sS'path'
p850
S'atmega'
p851
sS'unlock_bits'
p852
S'0x3F'
p853
ssS'upload'
p854
(dp855
S'protocol'
p856
S'arduino'
p857
sS'maximum_size'
p858
S'14336'
p859
sS'speed'
p860
S'19200'
p861
ssS'name'
p862
S'Arduino Pro or Pro Mini (3.3V, 8 MHz) w/ ATmega168'
p863
sS'build'
p864
(dp865
S'core'
p866
S'arduino'
p867
sS'mcu'
p868
S'atmega168'
p869
sS'f_cpu'
p870
S'8000000L'
p871
sS'variant'
p872
S'standard'
p873
ssaa(lp874
S'atmega168'
p875
a(dp876
g66
S'/usr/share/arduino/hardware/arduino'
p877
sS'bootloader'
p878
(dp879
S'extended_fuses'
p880
S'0x00'
p881
sS'high_fuses'
p882
S'0xdd'
p883
sS'low_fuses'
p884
S'0xff'
p885
sS'lock_bits'
p886
S'0x0F'
p887
sS'file'
p888
S'ATmegaBOOT_168_ng.hex'
p889
sS'path'
p890
S'atmega'
p891
sS'unlock_bits'
p892
S'0x3F'
p893
ssS'upload'
p894
(dp895
S'protocol'
p896
S'arduino'
p897
sS'maximum_size'
p898
S'14336'
p899
sS'speed'
p900
S'19200'
p901
ssS'name'
p902
S'Arduino NG or older w/ ATmega168'
p903
sS'build'
p904
(dp905
S'core'
p906
S'arduino'
p907
sS'mcu'
p908
S'atmega168'
p909
sS'f_cpu'
p910
S'16000000L'
p911
sS'variant'
p912
S'standard'
p913
ssaa(lp914
S'atmega8'
p915
a(dp916
g66
S'/usr/share/arduino/hardware/arduino'
p917
sS'bootloader'
p918
(dp919
S'high_fuses'
p920
S'0xca'
p921
sS'low_fuses'
p922
S'0xdf'
p923
sS'lock_bits'
p924
S'0x0F'
p925
sS'file'
p926
S'ATmegaBOOT.hex'
p927
sS'path'
p928
S'atmega8'
p929
sS'unlock_bits'
p930
S'0x3F'
p931
ssS'upload'
p932
(dp933
S'protocol'
p934
S'arduino'
p935
sS'maximum_size'
p936
S'7168'
p937
sS'speed'
p938
S'19200'
p939
ssS'name'
p940
S'Arduino NG or older w/ ATmega8'
p941
sS'build'
p942
(dp943
S'core'
p944
S'arduino'
p945
sS'mcu'
p946
S'atmega8'
p947
sS'f_cpu'
p948
S'16000000L'
p949
sS'variant'
p950
S'standard'
p951
ssaatp952
Rp953
(dp954
S'default'
p955
S'uno'
p956
sbtp957
a(S'used_libs'
p958
(lp959
S'/usr/share/arduino/hardware/arduino/cores/arduino'
p960
atp961
a(S'make'
p962
S'/usr/bin/make'
p963
tp964
a(S'build_dir'
p965
S'.build/mega2560'
p966
tp967
a(S'cc'
p968
S'/usr/bin/avr-gcc'
p969
tp970
a(S'cflags'
p971
g2
(g3
g4
(lp972
tp973
Rp974
tp975
a(S'cxxflags'
p976
g2
(g3
g4
(lp977
S'-fno-exceptions'
p978
atp979
Rp980
tp981
a(S'arduino_variants_dir'
p982
S'/usr/share/arduino/hardware/arduino/variants'
p983
tp984
a(S'stty'
p985
S'/bin/stty'
p986
tp987
a(S'version.txt'
p988
S'/usr/share/arduino/lib/version.txt'
p989
tp990
a(S'arduino_core_dir'
p991
g960
tp992
a(S'boards.txt'
p993
(lp994
S'/usr/share/arduino/hardware/arduino/boards.txt'
p995
atp996
a(S'avrdude.conf'
p997
S'/usr/share/arduino/hardware/tools/avrdude.conf'
p998
tp999
a(S'deps'
p1000
g2
(g3
g4
(lp1001
S'.build/mega2560/src/dependencies.d'
p1002
aS'.build/mega2560/arduino/dependencies.d'
p1003
atp1004
Rp1005
tp1006
a.